target datalayout = "e-m:e-p270:32:32-p271:32:32-p272:64:64-i64:64-i128:128-f80:128-n8:16:32:64-S128"
target triple = "x86_64-unknown-linux-gnu"

%"class.OpenColorIO_v2_4dev::SystemMonitorsImpl" = type { %"class.OpenColorIO_v2_4dev::SystemMonitors", %"class.std::vector" }
%"class.OpenColorIO_v2_4dev::SystemMonitors" = type { ptr }
%"class.std::vector" = type { %"struct.std::_Vector_base" }
%"struct.std::_Vector_base" = type { %"struct.std::_Vector_base<OpenColorIO_v2_4dev::SystemMonitorsImpl::MonitorInfo, std::allocator<OpenColorIO_v2_4dev::SystemMonitorsImpl::MonitorInfo>>::_Vector_impl" }
%"struct.std::_Vector_base<OpenColorIO_v2_4dev::SystemMonitorsImpl::MonitorInfo, std::allocator<OpenColorIO_v2_4dev::SystemMonitorsImpl::MonitorInfo>>::_Vector_impl" = type { %"struct.std::_Vector_base<OpenColorIO_v2_4dev::SystemMonitorsImpl::MonitorInfo, std::allocator<OpenColorIO_v2_4dev::SystemMonitorsImpl::MonitorInfo>>::_Vector_impl_data" }
%"struct.std::_Vector_base<OpenColorIO_v2_4dev::SystemMonitorsImpl::MonitorInfo, std::allocator<OpenColorIO_v2_4dev::SystemMonitorsImpl::MonitorInfo>>::_Vector_impl_data" = type { ptr, ptr, ptr }
%"class.std::__cxx11::basic_ostringstream" = type { %"class.std::basic_ostream.base", %"class.std::__cxx11::basic_stringbuf", %"class.std::basic_ios" }
%"class.std::basic_ostream.base" = type { ptr }
%"class.std::__cxx11::basic_stringbuf" = type { %"class.std::basic_streambuf", i32, %"class.std::__cxx11::basic_string" }
%"class.std::basic_streambuf" = type { ptr, ptr, ptr, ptr, ptr, ptr, ptr, %"class.std::locale" }
%"class.std::locale" = type { ptr }
%"class.std::__cxx11::basic_string" = type { %"struct.std::__cxx11::basic_string<char>::_Alloc_hider", i64, %union.anon }
%"struct.std::__cxx11::basic_string<char>::_Alloc_hider" = type { ptr }
%union.anon = type { i64, [8 x i8] }
%"class.std::basic_ios" = type { %"class.std::ios_base", ptr, i8, i8, ptr, ptr, ptr, ptr }
%"class.std::ios_base" = type { ptr, i64, i64, i32, i32, i32, ptr, %"struct.std::ios_base::_Words", [8 x %"struct.std::ios_base::_Words"], i32, ptr, %"class.std::locale" }
%"struct.std::ios_base::_Words" = type { ptr, i64 }
%"struct.OpenColorIO_v2_4dev::SystemMonitorsImpl::MonitorInfo" = type { %"class.std::__cxx11::basic_string", %"class.std::__cxx11::basic_string" }

@.str = private unnamed_addr constant [36 x i8] c"Invalid index for the monitor name \00", align 1
@.str.1 = private unnamed_addr constant [34 x i8] c" where the number of monitors is \00", align 1
@.str.2 = private unnamed_addr constant [2 x i8] c".\00", align 1
@_ZTIN19OpenColorIO_v2_4dev9ExceptionE = external constant ptr

; Function Attrs: mustprogress nounwind uwtable
define linkonce_odr hidden noundef nonnull align 8 dereferenceable(64) ptr @_ZNKSt6vectorIN19OpenColorIO_v2_4dev18SystemMonitorsImpl11MonitorInfoESaIS2_EEixEm(ptr noundef nonnull align 8 dereferenceable(24) %this, i64 noundef %__n) #0 comdat align 2 {
entry:
  %this.addr = alloca ptr, align 8
  %__n.addr = alloca i64, align 8
  store ptr %this, ptr %this.addr, align 8
  store i64 %__n, ptr %__n.addr, align 8
  %this1 = load ptr, ptr %this.addr, align 8
  %_M_impl = getelementptr inbounds %"struct.std::_Vector_base", ptr %this1, i32 0, i32 0
  %_M_start = getelementptr inbounds %"struct.std::_Vector_base<OpenColorIO_v2_4dev::SystemMonitorsImpl::MonitorInfo, std::allocator<OpenColorIO_v2_4dev::SystemMonitorsImpl::MonitorInfo>>::_Vector_impl_data", ptr %_M_impl, i32 0, i32 0
  %0 = load ptr, ptr %_M_start, align 8
  %1 = load i64, ptr %__n.addr, align 8
  %add.ptr = getelementptr inbounds %"struct.OpenColorIO_v2_4dev::SystemMonitorsImpl::MonitorInfo", ptr %0, i64 %1
  ret ptr %add.ptr
}

; Function Attrs: mustprogress nounwind uwtable
define linkonce_odr hidden noundef i64 @_ZNKSt6vectorIN19OpenColorIO_v2_4dev18SystemMonitorsImpl11MonitorInfoESaIS2_EE4sizeEv(ptr noundef nonnull align 8 dereferenceable(24) %this) #0 comdat align 2 {
entry:
  %this.addr = alloca ptr, align 8
  store ptr %this, ptr %this.addr, align 8
  %this1 = load ptr, ptr %this.addr, align 8
  %_M_impl = getelementptr inbounds %"struct.std::_Vector_base", ptr %this1, i32 0, i32 0
  %_M_finish = getelementptr inbounds %"struct.std::_Vector_base<OpenColorIO_v2_4dev::SystemMonitorsImpl::MonitorInfo, std::allocator<OpenColorIO_v2_4dev::SystemMonitorsImpl::MonitorInfo>>::_Vector_impl_data", ptr %_M_impl, i32 0, i32 1
  %0 = load ptr, ptr %_M_finish, align 8
  %_M_impl2 = getelementptr inbounds %"struct.std::_Vector_base", ptr %this1, i32 0, i32 0
  %_M_start = getelementptr inbounds %"struct.std::_Vector_base<OpenColorIO_v2_4dev::SystemMonitorsImpl::MonitorInfo, std::allocator<OpenColorIO_v2_4dev::SystemMonitorsImpl::MonitorInfo>>::_Vector_impl_data", ptr %_M_impl2, i32 0, i32 0
  %1 = load ptr, ptr %_M_start, align 8
  %sub.ptr.lhs.cast = ptrtoint ptr %0 to i64
  %sub.ptr.rhs.cast = ptrtoint ptr %1 to i64
  %sub.ptr.sub = sub i64 %sub.ptr.lhs.cast, %sub.ptr.rhs.cast
  %sub.ptr.div = sdiv exact i64 %sub.ptr.sub, 64
  ret i64 %sub.ptr.div
}

; Function Attrs: mustprogress uwtable
define hidden noundef ptr @_ZNK19OpenColorIO_v2_4dev18SystemMonitorsImpl18getProfileFilepathEm(ptr noundef nonnull align 8 dereferenceable(32) %this, i64 noundef %index) unnamed_addr #2 align 2 personality ptr @__gxx_personality_v0 {
entry:
  %this.addr = alloca ptr, align 8
  %index.addr = alloca i64, align 8
  %oss = alloca %"class.std::__cxx11::basic_ostringstream", align 8
  %exn.slot = alloca ptr, align 8
  %ehselector.slot = alloca i32, align 4
  %ref.tmp = alloca %"class.std::__cxx11::basic_string", align 8
  %cleanup.isactive = alloca i1, align 1
  store ptr %this, ptr %this.addr, align 8
  store i64 %index, ptr %index.addr, align 8
  %this1 = load ptr, ptr %this.addr, align 8
  %0 = load i64, ptr %index.addr, align 8
  %m_monitors = getelementptr inbounds %"class.OpenColorIO_v2_4dev::SystemMonitorsImpl", ptr %this1, i32 0, i32 1
  %call = call noundef i64 @_ZNKSt6vectorIN19OpenColorIO_v2_4dev18SystemMonitorsImpl11MonitorInfoESaIS2_EE4sizeEv(ptr noundef nonnull align 8 dereferenceable(24) %m_monitors) #1
  %cmp = icmp uge i64 %0, %call
  br i1 %cmp, label %if.then, label %if.end

if.then:                                          ; preds = %entry
  call void @_ZNSt7__cxx1119basic_ostringstreamIcSt11char_traitsIcESaIcEEC1Ev(ptr noundef nonnull align 8 dereferenceable(112) %oss)
  %call2 = invoke noundef nonnull align 8 dereferenceable(8) ptr @_ZStlsISt11char_traitsIcEERSt13basic_ostreamIcT_ES5_PKc(ptr noundef nonnull align 8 dereferenceable(8) %oss, ptr noundef @.str)
          to label %invoke.cont unwind label %lpad

invoke.cont:                                      ; preds = %if.then
  %1 = load i64, ptr %index.addr, align 8
  %call4 = invoke noundef nonnull align 8 dereferenceable(8) ptr @_ZNSolsEm(ptr noundef nonnull align 8 dereferenceable(8) %call2, i64 noundef %1)
          to label %invoke.cont3 unwind label %lpad

invoke.cont3:                                     ; preds = %invoke.cont
  %call6 = invoke noundef nonnull align 8 dereferenceable(8) ptr @_ZStlsISt11char_traitsIcEERSt13basic_ostreamIcT_ES5_PKc(ptr noundef nonnull align 8 dereferenceable(8) %call4, ptr noundef @.str.1)
          to label %invoke.cont5 unwind label %lpad

invoke.cont5:                                     ; preds = %invoke.cont3
  %m_monitors7 = getelementptr inbounds %"class.OpenColorIO_v2_4dev::SystemMonitorsImpl", ptr %this1, i32 0, i32 1
  %call8 = call noundef i64 @_ZNKSt6vectorIN19OpenColorIO_v2_4dev18SystemMonitorsImpl11MonitorInfoESaIS2_EE4sizeEv(ptr noundef nonnull align 8 dereferenceable(24) %m_monitors7) #1
  %call10 = invoke noundef nonnull align 8 dereferenceable(8) ptr @_ZNSolsEm(ptr noundef nonnull align 8 dereferenceable(8) %call6, i64 noundef %call8)
          to label %invoke.cont9 unwind label %lpad

invoke.cont9:                                     ; preds = %invoke.cont5
  %call12 = invoke noundef nonnull align 8 dereferenceable(8) ptr @_ZStlsISt11char_traitsIcEERSt13basic_ostreamIcT_ES5_PKc(ptr noundef nonnull align 8 dereferenceable(8) %call10, ptr noundef @.str.2)
          to label %invoke.cont11 unwind label %lpad

invoke.cont11:                                    ; preds = %invoke.cont9
  store i1 true, ptr %cleanup.isactive, align 1
  %exception = call ptr @__cxa_allocate_exception(i64 16) #1
  invoke void @_ZNKSt7__cxx1119basic_ostringstreamIcSt11char_traitsIcESaIcEE3strEv(ptr sret(%"class.std::__cxx11::basic_string") align 8 %ref.tmp, ptr noundef nonnull align 8 dereferenceable(112) %oss)
          to label %invoke.cont14 unwind label %lpad13

invoke.cont14:                                    ; preds = %invoke.cont11
  %call15 = call noundef ptr @_ZNKSt7__cxx1112basic_stringIcSt11char_traitsIcESaIcEE5c_strEv(ptr noundef nonnull align 8 dereferenceable(32) %ref.tmp) #1
  invoke void @_ZN19OpenColorIO_v2_4dev9ExceptionC1EPKc(ptr noundef nonnull align 8 dereferenceable(16) %exception, ptr noundef %call15)
          to label %invoke.cont17 unwind label %lpad16

invoke.cont17:                                    ; preds = %invoke.cont14
  store i1 false, ptr %cleanup.isactive, align 1
  invoke void @__cxa_throw(ptr %exception, ptr @_ZTIN19OpenColorIO_v2_4dev9ExceptionE, ptr @_ZN19OpenColorIO_v2_4dev9ExceptionD1Ev) #15
          to label %unreachable unwind label %lpad16

lpad:                                             ; preds = %invoke.cont9, %invoke.cont5, %invoke.cont3, %invoke.cont, %if.then
  %2 = landingpad { ptr, i32 }
          cleanup
  %3 = extractvalue { ptr, i32 } %2, 0
  store ptr %3, ptr %exn.slot, align 8
  %4 = extractvalue { ptr, i32 } %2, 1
  store i32 %4, ptr %ehselector.slot, align 4
  br label %ehcleanup18

lpad13:                                           ; preds = %invoke.cont11
  %5 = landingpad { ptr, i32 }
          cleanup
  %6 = extractvalue { ptr, i32 } %5, 0
  store ptr %6, ptr %exn.slot, align 8
  %7 = extractvalue { ptr, i32 } %5, 1
  store i32 %7, ptr %ehselector.slot, align 4
  br label %ehcleanup

lpad16:                                           ; preds = %invoke.cont17, %invoke.cont14
  %8 = landingpad { ptr, i32 }
          cleanup
  %9 = extractvalue { ptr, i32 } %8, 0
  store ptr %9, ptr %exn.slot, align 8
  %10 = extractvalue { ptr, i32 } %8, 1
  store i32 %10, ptr %ehselector.slot, align 4
  call void @_ZNSt7__cxx1112basic_stringIcSt11char_traitsIcESaIcEED1Ev(ptr noundef nonnull align 8 dereferenceable(32) %ref.tmp) #1
  br label %ehcleanup

ehcleanup:                                        ; preds = %lpad16, %lpad13
  %cleanup.is_active = load i1, ptr %cleanup.isactive, align 1
  br i1 %cleanup.is_active, label %cleanup.action, label %cleanup.done

cleanup.action:                                   ; preds = %ehcleanup
  call void @__cxa_free_exception(ptr %exception) #1
  br label %cleanup.done

cleanup.done:                                     ; preds = %cleanup.action, %ehcleanup
  br label %ehcleanup18

ehcleanup18:                                      ; preds = %cleanup.done, %lpad
  call void @_ZNSt7__cxx1119basic_ostringstreamIcSt11char_traitsIcESaIcEED1Ev(ptr noundef nonnull align 8 dereferenceable(112) %oss) #1
  br label %eh.resume

if.end:                                           ; preds = %entry
  %m_monitors19 = getelementptr inbounds %"class.OpenColorIO_v2_4dev::SystemMonitorsImpl", ptr %this1, i32 0, i32 1
  %11 = load i64, ptr %index.addr, align 8
  %call20 = call noundef nonnull align 8 dereferenceable(64) ptr @_ZNKSt6vectorIN19OpenColorIO_v2_4dev18SystemMonitorsImpl11MonitorInfoESaIS2_EEixEm(ptr noundef nonnull align 8 dereferenceable(24) %m_monitors19, i64 noundef %11) #1
  %m_ICCFilepath = getelementptr inbounds %"struct.OpenColorIO_v2_4dev::SystemMonitorsImpl::MonitorInfo", ptr %call20, i32 0, i32 1
  %call21 = call noundef ptr @_ZNKSt7__cxx1112basic_stringIcSt11char_traitsIcESaIcEE5c_strEv(ptr noundef nonnull align 8 dereferenceable(32) %m_ICCFilepath) #1
  ret ptr %call21

eh.resume:                                        ; preds = %ehcleanup18
  %exn = load ptr, ptr %exn.slot, align 8
  %sel = load i32, ptr %ehselector.slot, align 4
  %lpad.val = insertvalue { ptr, i32 } poison, ptr %exn, 0
  %lpad.val22 = insertvalue { ptr, i32 } %lpad.val, i32 %sel, 1
  resume { ptr, i32 } %lpad.val22

unreachable:                                      ; preds = %invoke.cont17
  unreachable
}